target datalayout = "e-m:e-p270:32:32-p271:32:32-p272:64:64-i64:64-i128:128-f80:128-n8:16:32:64-S128"
target triple = "x86_64-pc-linux-gnu"

%"struct.gmx::EnumerationArray.550" = type { [15 x ptr] }

@.str.3 = private unnamed_addr constant [127 x i8] c"generated/home/dtcxzyw/WorkSpace/Projects/compilers/llvm-opt-benchmark/bench/gromacs/gromacs/src/gromacs/fileio/checkpoint.cpp\00", align 1
@.str.22 = private unnamed_addr constant [2 x i8] c"v\00", align 1
@.str.172 = private unnamed_addr constant [7 x i8] c"%s[%d]\00", align 1

; Function Attrs: mustprogress nounwind uwtable
define linkonce_odr noundef nonnull align 8 dereferenceable(8) ptr @_ZNK3gmx16EnumerationArrayI13StateFepEntryPKcLS1_15EEixES1_(ptr noundef nonnull align 8 dereferenceable(120) %0, i32 noundef %1) #3 comdat align 2 {
  %3 = alloca ptr, align 8
  %4 = alloca i32, align 4
  store ptr %0, ptr %3, align 8, !tbaa !893
  store i32 %1, ptr %4, align 4, !tbaa !426
  %5 = load ptr, ptr %3, align 8
  %6 = getelementptr inbounds nuw %"struct.gmx::EnumerationArray.550", ptr %5, i32 0, i32 0
  %7 = load i32, ptr %4, align 4, !tbaa !426
  %8 = sext i32 %7 to i64
  %9 = getelementptr inbounds nuw [15 x ptr], ptr %6, i64 0, i64 %8
  ret ptr %9
}

; Function Attrs: mustprogress uwtable
define internal noundef ptr @_ZL17enumValueToString13StateFepEntry(i32 noundef %0) #0 {
  %2 = alloca i32, align 4
  store i32 %0, ptr %2, align 4, !tbaa !426
  %3 = load i32, ptr %2, align 4, !tbaa !426
  %4 = call noundef nonnull align 8 dereferenceable(8) ptr @_ZNK3gmx16EnumerationArrayI13StateFepEntryPKcLS1_15EEixES1_(ptr noundef nonnull align 8 dereferenceable(120) @_ZZL17enumValueToString13StateFepEntryE18stateFepEntryNames, i32 noundef %3)
  %5 = load ptr, ptr %4, align 8, !tbaa !13
  ret ptr %5
}

; Function Attrs: inlinehint mustprogress uwtable
define internal void @_ZL13gmx_snew_implIPfEvPKcS2_iRPT_m(ptr noundef %0, ptr noundef %1, i32 noundef %2, ptr noundef nonnull align 8 dereferenceable(8) %3, i64 noundef %4) #2 {
  %6 = alloca ptr, align 8
  %7 = alloca ptr, align 8
  %8 = alloca i32, align 4
  %9 = alloca ptr, align 8
  %10 = alloca i64, align 8
  store ptr %0, ptr %6, align 8, !tbaa !13
  store ptr %1, ptr %7, align 8, !tbaa !13
  store i32 %2, ptr %8, align 4, !tbaa !25
  store ptr %3, ptr %9, align 8, !tbaa !895
  store i64 %4, ptr %10, align 8, !tbaa !11
  %11 = load ptr, ptr %6, align 8, !tbaa !13
  %12 = load ptr, ptr %7, align 8, !tbaa !13
  %13 = load i32, ptr %8, align 4, !tbaa !25
  %14 = load i64, ptr %10, align 8, !tbaa !11
  %15 = call noundef ptr @_Z11save_callocPKcS0_imm(ptr noundef %11, ptr noundef %12, i32 noundef %13, i64 noundef %14, i64 noundef 8)
  %16 = load ptr, ptr %9, align 8, !tbaa !895
  store ptr %15, ptr %16, align 8, !tbaa !539
  ret void
}

; Function Attrs: mustprogress uwtable
define internal noundef i32 @_ZL15do_cpte_nmatrixI13StateFepEntryEiP3XDRT_iiPPfP8_IO_FILE(ptr noundef %0, i32 noundef %1, i32 noundef %2, i32 noundef %3, ptr noundef %4, ptr noundef %5) #0 {
  %7 = alloca ptr, align 8
  %8 = alloca i32, align 4
  %9 = alloca i32, align 4
  %10 = alloca i32, align 4
  %11 = alloca ptr, align 8
  %12 = alloca ptr, align 8
  %13 = alloca i32, align 4
  %14 = alloca i32, align 4
  %15 = alloca i32, align 4
  %16 = alloca [1024 x i8], align 16
  store ptr %0, ptr %7, align 8, !tbaa !436
  store i32 %1, ptr %8, align 4, !tbaa !426
  store i32 %2, ptr %9, align 4, !tbaa !25
  store i32 %3, ptr %10, align 4, !tbaa !25
  store ptr %4, ptr %11, align 8, !tbaa !539
  store ptr %5, ptr %12, align 8, !tbaa !438
  call void @llvm.lifetime.start.p0(i64 4, ptr %13) #21
  call void @llvm.lifetime.start.p0(i64 4, ptr %14) #21
  call void @llvm.lifetime.start.p0(i64 4, ptr %15) #21
  call void @llvm.lifetime.start.p0(i64 1024, ptr %16) #21
  store i32 0, ptr %14, align 4, !tbaa !25
  %17 = load ptr, ptr %11, align 8, !tbaa !539
  %18 = icmp eq ptr %17, null
  br i1 %18, label %19, label %22

19:                                               ; preds = %6
  %20 = load i32, ptr %10, align 4, !tbaa !25
  %21 = sext i32 %20 to i64
  call void @_ZL13gmx_snew_implIPfEvPKcS2_iRPT_m(ptr noundef @.str.22, ptr noundef @.str.3, i32 noundef 1013, ptr noundef nonnull align 8 dereferenceable(8) %11, i64 noundef %21)
  br label %22

22:                                               ; preds = %19, %6
  store i32 0, ptr %13, align 4, !tbaa !25
  br label %23

23:                                               ; preds = %63, %22
  %24 = load i32, ptr %13, align 4, !tbaa !25
  %25 = load i32, ptr %10, align 4, !tbaa !25
  %26 = icmp slt i32 %24, %25
  br i1 %26, label %27, label %66

27:                                               ; preds = %23
  %28 = load ptr, ptr %7, align 8, !tbaa !436
  %29 = load i32, ptr %8, align 4, !tbaa !426
  %30 = load i32, ptr %9, align 4, !tbaa !25
  %31 = load i32, ptr %10, align 4, !tbaa !25
  %32 = sext i32 %31 to i64
  %33 = load ptr, ptr %11, align 8, !tbaa !539
  %34 = load i32, ptr %13, align 4, !tbaa !25
  %35 = sext i32 %34 to i64
  %36 = getelementptr inbounds ptr, ptr %33, i64 %35
  %37 = call noundef i32 @_ZL11doVectorLowIfSaIfE13StateFepEntryEiP3XDRT1_ilPPT_PSt6vectorIS5_T0_EP8_IO_FILE14CptElementType(ptr noundef %28, i32 noundef %29, i32 noundef %30, i64 noundef %32, ptr noundef %36, ptr noundef null, ptr noundef null, i32 noundef 3)
  store i32 %37, ptr %15, align 4, !tbaa !25
  %38 = load ptr, ptr %12, align 8, !tbaa !438
  %39 = icmp ne ptr %38, null
  br i1 %39, label %40, label %57

40:                                               ; preds = %27
  %41 = load i32, ptr %15, align 4, !tbaa !25
  %42 = icmp eq i32 %41, 0
  br i1 %42, label %43, label %57

43:                                               ; preds = %40
  %44 = getelementptr inbounds [1024 x i8], ptr %16, i64 0, i64 0
  %45 = load i32, ptr %8, align 4, !tbaa !426
  %46 = call noundef ptr @_ZL17enumValueToString13StateFepEntry(i32 noundef %45)
  %47 = load i32, ptr %13, align 4, !tbaa !25
  %48 = call i32 (ptr, ptr, ...) @sprintf(ptr noundef %44, ptr noundef @.str.172, ptr noundef %46, i32 noundef %47) #21
  %49 = load ptr, ptr %12, align 8, !tbaa !438
  %50 = getelementptr inbounds [1024 x i8], ptr %16, i64 0, i64 0
  %51 = load ptr, ptr %11, align 8, !tbaa !539
  %52 = load i32, ptr %13, align 4, !tbaa !25
  %53 = sext i32 %52 to i64
  %54 = getelementptr inbounds ptr, ptr %51, i64 %53
  %55 = load ptr, ptr %54, align 8, !tbaa !190
  %56 = load i32, ptr %10, align 4, !tbaa !25
  call void @_Z8pr_realsP8_IO_FILEiPKcPKfi(ptr noundef %49, i32 noundef 0, ptr noundef %50, ptr noundef %55, i32 noundef %56)
  br label %57

57:                                               ; preds = %43, %40, %27
  %58 = load i32, ptr %15, align 4, !tbaa !25
  %59 = icmp ne i32 %58, 0
  br i1 %59, label %60, label %62

60:                                               ; preds = %57
  %61 = load i32, ptr %15, align 4, !tbaa !25
  store i32 %61, ptr %14, align 4, !tbaa !25
  br label %62

62:                                               ; preds = %60, %57
  br label %63

63:                                               ; preds = %62
  %64 = load i32, ptr %13, align 4, !tbaa !25
  %65 = add nsw i32 %64, 1
  store i32 %65, ptr %13, align 4, !tbaa !25
  br label %23, !llvm.loop !872

66:                                               ; preds = %23
  %67 = load i32, ptr %14, align 4, !tbaa !25
  call void @llvm.lifetime.end.p0(i64 1024, ptr %16) #21
  call void @llvm.lifetime.end.p0(i64 4, ptr %15) #21
  call void @llvm.lifetime.end.p0(i64 4, ptr %14) #21
  call void @llvm.lifetime.end.p0(i64 4, ptr %13) #21
  ret i32 %67
}