; Function Attrs: mustprogress uwtable
define internal fastcc noundef range(i32 -1, 1) i32 @_ZL15do_cpte_nmatrixI13StateFepEntryEiP3XDRT_iiPPfP8_IO_FILE(ptr noundef %0, i32 noundef %1, i32 noundef range(i32 1, 0) %2, i32 noundef %3, ptr noundef %4, ptr noundef %5) unnamed_addr #0 {
  %7 = alloca [1024 x i8], align 16
  call void @llvm.lifetime.start.p0(i64 1024, ptr nonnull %7) #25
  %8 = icmp eq ptr %4, null
  br i1 %8, label %9, label %12

9:                                                ; preds = %6
  %10 = sext i32 %3 to i64
  %11 = tail call noundef ptr @_Z11save_callocPKcS0_imm(ptr noundef nonnull @.str.22, ptr noundef nonnull @.str.3, i32 noundef 1013, i64 noundef range(i64 -2147483648, 2147483648) %10, i64 noundef 8)
  br label %12

12:                                               ; preds = %9, %6
  %.024 = phi ptr [ %11, %9 ], [ %4, %6 ]
  %13 = icmp sgt i32 %3, 0
  br i1 %13, label %.lr.ph, label %._crit_edge

.lr.ph:                                           ; preds = %12
  %14 = zext nneg i32 %3 to i64
  %.not = icmp eq ptr %5, null
  %15 = sext i32 %1 to i64
  %16 = getelementptr inbounds nuw [15 x ptr], ptr @_ZZL17enumValueToString13StateFepEntryE18stateFepEntryNames, i64 0, i64 %15
  br i1 %.not, label %.lr.ph.split.us, label %.lr.ph.split

.lr.ph.split.us:                                  ; preds = %.lr.ph, %.lr.ph.split.us
  %indvars.iv29 = phi i64 [ %indvars.iv.next30, %.lr.ph.split.us ], [ 0, %.lr.ph ]
  %.01925.us = phi i32 [ %spec.select.us, %.lr.ph.split.us ], [ 0, %.lr.ph ]
  %17 = getelementptr inbounds nuw ptr, ptr %.024, i64 %indvars.iv29
  %18 = tail call fastcc noundef i32 @_ZL11doVectorLowIfSaIfE13StateFepEntryEiP3XDRT1_ilPPT_PSt6vectorIS5_T0_EP8_IO_FILE14CptElementType(ptr noundef %0, i32 noundef %1, i32 noundef %2, i64 noundef %14, ptr noundef %17, ptr noundef null, i32 noundef 3)
  %19 = icmp eq i32 %18, 0
  %spec.select.us = select i1 %19, i32 %.01925.us, i32 %18
  %indvars.iv.next30 = add nuw nsw i64 %indvars.iv29, 1
  %exitcond33.not = icmp eq i64 %indvars.iv.next30, %14
  br i1 %exitcond33.not, label %._crit_edge, label %.lr.ph.split.us, !llvm.loop !421

.lr.ph.split:                                     ; preds = %.lr.ph, %28
  %indvars.iv = phi i64 [ %indvars.iv.next, %28 ], [ 0, %.lr.ph ]
  %.01925 = phi i32 [ %spec.select, %28 ], [ 0, %.lr.ph ]
  %20 = getelementptr inbounds nuw ptr, ptr %.024, i64 %indvars.iv
  %21 = call fastcc noundef i32 @_ZL11doVectorLowIfSaIfE13StateFepEntryEiP3XDRT1_ilPPT_PSt6vectorIS5_T0_EP8_IO_FILE14CptElementType(ptr noundef %0, i32 noundef %1, i32 noundef %2, i64 noundef %14, ptr noundef %20, ptr noundef null, i32 noundef 3)
  %22 = icmp eq i32 %21, 0
  br i1 %22, label %23, label %28

23:                                               ; preds = %.lr.ph.split
  %24 = load ptr, ptr %16, align 8, !tbaa !32
  %25 = trunc nuw nsw i64 %indvars.iv to i32
  %26 = call i32 (ptr, ptr, ...) @sprintf(ptr noundef nonnull dereferenceable(1) %7, ptr noundef nonnull dereferenceable(1) @.str.172, ptr noundef %24, i32 noundef %25) #25
  %27 = load ptr, ptr %20, align 8, !tbaa !251
  call void @_Z8pr_realsP8_IO_FILEiPKcPKfi(ptr noundef nonnull %5, i32 noundef 0, ptr noundef nonnull %7, ptr noundef %27, i32 noundef %3)
  br label %28

28:                                               ; preds = %23, %.lr.ph.split
  %spec.select = phi i32 [ %.01925, %23 ], [ -1, %.lr.ph.split ]
  %indvars.iv.next = add nuw nsw i64 %indvars.iv, 1
  %exitcond.not = icmp eq i64 %indvars.iv.next, %14
  br i1 %exitcond.not, label %._crit_edge, label %.lr.ph.split, !llvm.loop !421

._crit_edge:                                      ; preds = %28, %.lr.ph.split.us, %12
  %.019.lcssa = phi i32 [ 0, %12 ], [ %spec.select.us, %.lr.ph.split.us ], [ %spec.select, %28 ]
  call void @llvm.lifetime.end.p0(i64 1024, ptr nonnull %7) #25
  ret i32 %.019.lcssa
}